SF:/home/tony/src/rust-iced-7guis/cells/src/main.rs
FN:1,_RNvCs4DwtxzWzOEs_5cells4main
FNDA:0,_RNvCs4DwtxzWzOEs_5cells4main
FNF:1
FNH:0
DA:1,0
DA:2,0
DA:3,0
BRF:0
BRH:0
LF:3
LH:0
end_of_record
SF:/home/tony/src/rust-iced-7guis/circle-drawer/src/main.rs
FN:1,_RNvCs1p5SKYkLozI_13circle_drawer4main
FNDA:0,_RNvCs1p5SKYkLozI_13circle_drawer4main
FNF:1
FNH:0
DA:1,0
DA:2,0
DA:3,0
BRF:0
BRH:0
LF:3
LH:0
end_of_record
SF:/home/tony/src/rust-iced-7guis/counter/src/main.rs
FN:5,_RNvCs6GKAhhPYFFv_7counter4main
FN:80,_RNvNtCs6GKAhhPYFFv_7counter5testss_16test_counter_new
FN:123,_RNvNtCs6GKAhhPYFFv_7counter5testss_18test_message_clone
FN:116,_RNvNtCs6GKAhhPYFFv_7counter5testss_18test_message_debug
FN:87,_RNvNtCs6GKAhhPYFFv_7counter5testss_20test_counter_default
FN:93,_RNvNtCs6GKAhhPYFFv_7counter5testss_21test_single_increment
FN:100,_RNvNtCs6GKAhhPYFFv_7counter5testss_24test_multiple_increments
FN:109,_RNvNtCs6GKAhhPYFFv_7counter5testss_28test_increment_from_non_zero
FN:60,_RNvNtCs6GKAhhPYFFv_7counter5testss_9it_counts
FN:27,_RNvMCs6GKAhhPYFFv_7counterNtB2_7Counter3new
FN:39,_RNvMCs6GKAhhPYFFv_7counterNtB2_7Counter4view
FN:31,_RNvMCs6GKAhhPYFFv_7counterNtB2_7Counter6update
FNDA:0,_RNvCs6GKAhhPYFFv_7counter4main
FNDA:1,_RNvNtCs6GKAhhPYFFv_7counter5testss_16test_counter_new
FNDA:1,_RNvNtCs6GKAhhPYFFv_7counter5testss_18test_message_clone
FNDA:1,_RNvNtCs6GKAhhPYFFv_7counter5testss_18test_message_debug
FNDA:1,_RNvNtCs6GKAhhPYFFv_7counter5testss_20test_counter_default
FNDA:1,_RNvNtCs6GKAhhPYFFv_7counter5testss_21test_single_increment
FNDA:1,_RNvNtCs6GKAhhPYFFv_7counter5testss_24test_multiple_increments
FNDA:1,_RNvNtCs6GKAhhPYFFv_7counter5testss_28test_increment_from_non_zero
FNDA:1,_RNvNtCs6GKAhhPYFFv_7counter5testss_9it_counts
FNDA:1,_RNvMCs6GKAhhPYFFv_7counterNtB2_7Counter3new
FNDA:2,_RNvMCs6GKAhhPYFFv_7counterNtB2_7Counter4view
FNDA:16,_RNvMCs6GKAhhPYFFv_7counterNtB2_7Counter6update
FNF:12
FNH:11
DA:5,0
DA:6,0
DA:7,0
DA:8,0
DA:9,0
DA:10,0
DA:11,0
DA:12,0
DA:13,0
DA:14,0
DA:27,1
DA:28,1
DA:29,1
DA:31,16
DA:32,16
DA:33,16
DA:34,16
DA:35,16
DA:37,16
DA:39,2
DA:41,2
DA:42,2
DA:43,2
DA:45,2
DA:46,2
DA:48,2
DA:49,2
DA:50,2
DA:51,2
DA:60,1
DA:61,1
DA:62,1
DA:64,1
DA:65,1
DA:67,2
DA:68,2
DA:69,2
DA:71,1
DA:73,1
DA:74,1
DA:76,1
DA:77,1
DA:80,1
DA:81,1
DA:82,1
DA:84,1
DA:87,1
DA:88,1
DA:89,1
DA:90,1
DA:93,1
DA:94,1
DA:95,1
DA:96,1
DA:97,1
DA:100,1
DA:101,1
DA:102,11
DA:103,10
DA:104,10
DA:105,1
DA:106,1
DA:109,1
DA:110,1
DA:111,1
DA:112,1
DA:113,1
DA:116,1
DA:117,1
DA:118,1
DA:119,1
DA:120,1
DA:123,1
DA:124,1
DA:125,1
DA:127,1
DA:128,1
DA:129,1
DA:130,1
DA:131,1
BRF:0
BRH:0
LF:80
LH:70
end_of_record
SF:/home/tony/src/rust-iced-7guis/crud/src/main.rs
FN:1,_RNvCs88RIAaQ6Lz2_4crud4main
FNDA:0,_RNvCs88RIAaQ6Lz2_4crud4main
FNF:1
FNH:0
DA:1,0
DA:2,0
DA:3,0
BRF:0
BRH:0
LF:3
LH:0
end_of_record
SF:/home/tony/src/rust-iced-7guis/flight-booker/src/main.rs
FN:1,_RNvCs5JX8LowyvSK_13flight_booker4main
FNDA:0,_RNvCs5JX8LowyvSK_13flight_booker4main
FNF:1
FNH:0
DA:1,0
DA:2,0
DA:3,0
BRF:0
BRH:0
LF:3
LH:0
end_of_record
SF:/home/tony/src/rust-iced-7guis/temperature-converter/src/main.rs
FN:48,_RNCNvMCscZSUwUJJtGh_21temperature_converterNtB4_10Calculator6update0B4_
FN:56,_RNCNvMCscZSUwUJJtGh_21temperature_converterNtB4_10Calculator6updates_0B4_
FN:5,_RNvCscZSUwUJJtGh_21temperature_converter4main
FN:31,_RNvMCscZSUwUJJtGh_21temperature_converterNtB2_10Calculator3new
FN:64,_RNvMCscZSUwUJJtGh_21temperature_converterNtB2_10Calculator4view
FN:43,_RNvMCscZSUwUJJtGh_21temperature_converterNtB2_10Calculator6update
FNDA:0,_RNCNvMCscZSUwUJJtGh_21temperature_converterNtB4_10Calculator6update0B4_
FNDA:0,_RNCNvMCscZSUwUJJtGh_21temperature_converterNtB4_10Calculator6updates_0B4_
FNDA:0,_RNvCscZSUwUJJtGh_21temperature_converter4main
FNDA:0,_RNvMCscZSUwUJJtGh_21temperature_converterNtB2_10Calculator3new
FNDA:0,_RNvMCscZSUwUJJtGh_21temperature_converterNtB2_10Calculator4view
FNDA:0,_RNvMCscZSUwUJJtGh_21temperature_converterNtB2_10Calculator6update
FNF:6
FNH:0
DA:5,0
DA:6,0
DA:7,0
DA:8,0
DA:9,0
DA:10,0
DA:11,0
DA:12,0
DA:13,0
DA:14,0
DA:31,0
DA:32,0
DA:33,0
DA:34,0
DA:35,0
DA:36,0
DA:37,0
DA:38,0
DA:39,0
DA:40,0
DA:41,0
DA:43,0
DA:44,0
DA:45,0
DA:46,0
DA:47,0
DA:48,0
DA:49,0
DA:50,0
DA:51,0
DA:53,0
DA:54,0
DA:55,0
DA:56,0
DA:57,0
DA:58,0
DA:59,0
DA:62,0
DA:64,0
DA:65,0
DA:66,0
DA:67,0
DA:68,0
DA:69,0
DA:70,0
DA:71,0
DA:72,0
DA:73,0
DA:75,0
DA:76,0
DA:78,0
DA:79,0
DA:80,0
DA:81,0
BRF:0
BRH:0
LF:56
LH:0
end_of_record
SF:/home/tony/src/rust-iced-7guis/timer/src/main.rs
FN:1,_RNvCs9uMi39iU4Kw_5timer4main
FNDA:0,_RNvCs9uMi39iU4Kw_5timer4main
FNF:1
FNH:0
DA:1,0
DA:2,0
DA:3,0
BRF:0
BRH:0
LF:3
LH:0
end_of_record