SF:/home/tony/src/rust-iced-7guis/temperature-converter/src/main.rs
FN:118,_RNvNtCsgX38h6jKgCx_21temperature_converter5testss_17test_from_celsius
FN:110,_RNvNtCsgX38h6jKgCx_21temperature_converter5testss_19test_calculator_new
FN:128,_RNvNtCsgX38h6jKgCx_21temperature_converter5testss_19test_from_farenheit
FN:90,_RNvNtCsgX38h6jKgCx_21temperature_converter5testss_8it_calcs
FN:48,_RNCNvMCsgX38h6jKgCx_21temperature_converterNtB4_10Calculator6update0B4_
FN:56,_RNCNvMCsgX38h6jKgCx_21temperature_converterNtB4_10Calculator6updates_0B4_
FN:5,_RNvCsgX38h6jKgCx_21temperature_converter4main
FN:31,_RNvMCsgX38h6jKgCx_21temperature_converterNtB2_10Calculator3new
FN:64,_RNvMCsgX38h6jKgCx_21temperature_converterNtB2_10Calculator4view
FN:43,_RNvMCsgX38h6jKgCx_21temperature_converterNtB2_10Calculator6update
FNDA:1,_RNvNtCsgX38h6jKgCx_21temperature_converter5testss_17test_from_celsius
FNDA:1,_RNvNtCsgX38h6jKgCx_21temperature_converter5testss_19test_calculator_new
FNDA:1,_RNvNtCsgX38h6jKgCx_21temperature_converter5testss_19test_from_farenheit
FNDA:1,_RNvNtCsgX38h6jKgCx_21temperature_converter5testss_8it_calcs
FNDA:1,_RNCNvMCsgX38h6jKgCx_21temperature_converterNtB4_10Calculator6update0B4_
FNDA:1,_RNCNvMCsgX38h6jKgCx_21temperature_converterNtB4_10Calculator6updates_0B4_
FNDA:0,_RNvCsgX38h6jKgCx_21temperature_converter4main
FNDA:1,_RNvMCsgX38h6jKgCx_21temperature_converterNtB2_10Calculator3new
FNDA:1,_RNvMCsgX38h6jKgCx_21temperature_converterNtB2_10Calculator4view
FNDA:2,_RNvMCsgX38h6jKgCx_21temperature_converterNtB2_10Calculator6update
FNF:10
FNH:9
DA:5,0
DA:6,0
DA:7,0
DA:8,0
DA:9,0
DA:10,0
DA:11,0
DA:12,0
DA:13,0
DA:14,0
DA:31,1
DA:32,1
DA:33,1
DA:34,1
DA:35,1
DA:36,1
DA:37,1
DA:38,1
DA:39,1
DA:40,1
DA:41,1
DA:43,2
DA:44,2
DA:45,1
DA:46,1
DA:47,1
DA:48,1
DA:49,1
DA:50,1
DA:51,1
DA:53,1
DA:54,1
DA:55,1
DA:56,1
DA:57,1
DA:58,1
DA:59,1
DA:62,2
DA:64,1
DA:65,1
DA:66,1
DA:67,1
DA:68,1
DA:69,1
DA:70,1
DA:71,1
DA:72,1
DA:73,1
DA:75,1
DA:76,1
DA:78,1
DA:79,1
DA:80,1
DA:81,1
DA:90,1
DA:91,1
DA:102,1
DA:103,1
DA:105,1
DA:106,1
DA:110,1
DA:111,1
DA:112,1
DA:113,1
DA:115,1
DA:118,1
DA:119,1
DA:120,1
DA:121,1
DA:122,1
DA:123,1
DA:124,1
DA:125,1
DA:128,1
DA:129,1
DA:130,1
DA:131,1
DA:132,1
DA:133,1
DA:134,1
DA:135,1
BRF:0
BRH:0
LF:83
LH:73
end_of_record